(dp0
S'name'
p1
S'results'
p2
sS'colsize'
p3
(dp4
cnumpy.core.multiarray
scalar
p5
(cnumpy
dtype
p6
(S'S12'
p7
I0
I1
tp8
Rp9
(I3
S'|'
p10
NNNI12
I1
I0
tp11
bS'IterationNum'
p12
tp13
Rp14
I50
sS'user2'
p15
I50
sS'user3'
p16
I50
sS'dynamic'
p17
I50
sS'Remark'
p18
I200
sS'Filename'
p19
I50
sS'ryerr Rb'
p20
I50
sS'sy Rb'
p21
I50
sg5
(g6
(S'S5'
p22
I0
I1
tp23
Rp24
(I3
S'|'
p25
NNNI5
I1
I0
tp26
bS'freq1'
p27
tp28
Rp29
I50
sS'Nerr Rb'
p30
I50
sS'sxerr Rb'
p31
I50
sg5
(g6
(S'S5'
p32
I0
I1
tp33
Rp34
(I3
S'|'
p35
NNNI5
I1
I0
tp36
bS'freq3'
p37
tp38
Rp39
I50
sg5
(g6
(S'S5'
p40
I0
I1
tp41
Rp42
(I3
S'|'
p43
NNNI5
I1
I0
tp44
bS'freq2'
p45
tp46
Rp47
I50
sS'OD Rb'
p48
I50
sS'sigma Rb'
p49
I50
sS'Nth Rb'
p50
I50
sS'rxerr Rb'
p51
I50
sS'sx Rb'
p52
I50
sS'Nbec Rb'
p53
I50
sS'dynamic 2'
p54
I50
sS'T Rb'
p55
I50
sS'params Rb'
p56
I50
sS'dynamic 4'
p57
I50
sS'mxerr Rb'
p58
I50
sS'N Rb'
p59
I69
sg5
(g6
(S'S14'
p60
I0
I1
tp61
Rp62
(I3
S'|'
p63
NNNI14
I1
I0
tp64
bS'IterationCount'
p65
tp66
Rp67
I50
sS'Omit'
p68
I50
sS'ODerr Rb'
p69
I50
sS'user'
p70
I31
sS'dynamic 3'
p71
I50
sS'ry Rb'
p72
I50
sS'Terr Rb'
p73
I50
sS'FileID'
p74
I84
sg5
(g6
(S'S8'
p75
I0
I1
tp76
Rp77
(I3
S'|'
p78
NNNI8
I1
I0
tp79
bS'WaitTime'
p80
tp81
Rp82
I169
sS'rx Rb'
p83
I50
sS'myerr Rb'
p84
I50
sS'mx Rb'
p85
I50
sg5
(g6
(S'S7'
p86
I0
I1
tp87
Rp88
(I3
S'|'
p89
NNNI7
I1
I0
tp90
bS'ImgFreq'
p91
tp92
Rp93
I50
sS'my Rb'
p94
I50
sg5
(g6
(S'S3'
p95
I0
I1
tp96
Rp97
(I3
S'|'
p98
NNNI3
I1
I0
tp99
bS'exp'
p100
tp101
Rp102
I50
sS'syerr Rb'
p103
I50
ssS'dynamic_expressions'
p104
(lp105
S''
p106
ag106
ag106
ag106
asS'colsel'
p107
(lp108
g74
ag59
ag52
ag21
ag55
ag17
ag70
ag68
ag14
ag82
ag18
asS'column_labels_custom'
p109
(dp110
sS'marks'
p111
(dp112
S'Y1'
p113
(lp114
sS'X'
p115
(lp116
sS'Y2'
p117
(lp118
sS'G'
p119
(lp120
ss.